target datalayout = "e-m:e-p270:32:32-p271:32:32-p272:64:64-i64:64-i128:128-f80:128-n8:16:32:64-S128"
target triple = "x86_64-pc-linux-gnu"

%struct.zstream = type { i64, i64, i64, i64, %struct.z_stream_s, ptr }
%struct.z_stream_s = type { ptr, i32, i64, ptr, i32, i64, ptr, ptr, ptr, ptr, ptr, i32, i64, i64 }
%struct.RString = type { %struct.RBasic, i64, %union.anon }
%struct.RBasic = type { i64, i64 }
%union.anon = type { %struct.anon }
%struct.anon = type { ptr, %union.anon.0 }
%union.anon.0 = type { i64 }
%struct.anon.1 = type { [1 x i8] }

; Function Attrs: inlinehint nounwind sspstrong willreturn memory(read) uwtable
define internal i64 @RB_FL_TEST_RAW(i64 noundef %0, i64 noundef %1) #6 {
  %3 = alloca i64, align 8
  %4 = alloca i64, align 8
  store i64 %0, ptr %3, align 8, !tbaa !6
  store i64 %1, ptr %4, align 8, !tbaa !6
  %5 = load i64, ptr %3, align 8, !tbaa !6
  %6 = inttoptr i64 %5 to ptr
  %7 = getelementptr inbounds nuw %struct.RBasic, ptr %6, i32 0, i32 0
  %8 = load i64, ptr %7, align 8, !tbaa !91
  %9 = load i64, ptr %4, align 8, !tbaa !6
  %10 = and i64 %8, %9
  ret i64 %10
}

; Function Attrs: inlinehint nounwind sspstrong willreturn memory(read) uwtable
define internal zeroext i1 @RB_FL_ANY_RAW(i64 noundef %0, i64 noundef %1) #6 {
  %3 = alloca i64, align 8
  %4 = alloca i64, align 8
  store i64 %0, ptr %3, align 8, !tbaa !6
  store i64 %1, ptr %4, align 8, !tbaa !6
  %5 = load i64, ptr %3, align 8, !tbaa !6
  %6 = load i64, ptr %4, align 8, !tbaa !6
  %7 = call i64 @RB_FL_TEST_RAW(i64 noundef %5, i64 noundef %6) #25
  %8 = icmp ne i64 %7, 0
  ret i1 %8
}

; Function Attrs: inlinehint nounwind sspstrong uwtable
define internal ptr @RSTRING_END(i64 noundef %0) #3 {
  %2 = alloca i64, align 8
  %3 = alloca %struct.RString, align 8
  store i64 %0, ptr %2, align 8, !tbaa !6
  call void @llvm.lifetime.start.p0(i64 40, ptr %3) #23
  %4 = load i64, ptr %2, align 8, !tbaa !6
  call void @rbimpl_rstring_getmem(ptr dead_on_unwind writable sret(%struct.RString) align 8 %3, i64 noundef %4) #28
  %5 = getelementptr inbounds nuw %struct.RString, ptr %3, i32 0, i32 2
  %6 = getelementptr inbounds nuw %struct.anon, ptr %5, i32 0, i32 0
  %7 = load ptr, ptr %6, align 8, !tbaa !68
  %8 = getelementptr inbounds nuw %struct.RString, ptr %3, i32 0, i32 1
  %9 = load i64, ptr %8, align 8, !tbaa !88
  %10 = getelementptr inbounds i8, ptr %7, i64 %9
  call void @llvm.lifetime.end.p0(i64 40, ptr %3) #23
  ret ptr %10
}

; Function Attrs: inlinehint nounwind sspstrong uwtable
define internal i32 @max_uint(i64 noundef %0) #3 {
  %2 = alloca i64, align 8
  store i64 %0, ptr %2, align 8, !tbaa !6
  %3 = load i64, ptr %2, align 8, !tbaa !6
  %4 = icmp sgt i64 %3, 4294967295
  br i1 %4, label %5, label %6

5:                                                ; preds = %1
  store i64 4294967295, ptr %2, align 8, !tbaa !6
  br label %6

6:                                                ; preds = %5, %1
  %7 = load i64, ptr %2, align 8, !tbaa !6
  %8 = trunc i64 %7 to i32
  ret i32 %8
}

; Function Attrs: inlinehint nounwind sspstrong uwtable
define internal ptr @RSTRING_PTR(i64 noundef %0) #3 {
  %2 = alloca i64, align 8
  %3 = alloca ptr, align 8
  %4 = alloca %struct.RString, align 8
  store i64 %0, ptr %2, align 8, !tbaa !6
  call void @llvm.lifetime.start.p0(i64 8, ptr %3) #23
  %5 = load i64, ptr %2, align 8, !tbaa !6
  call void @rbimpl_rstring_getmem(ptr dead_on_unwind writable sret(%struct.RString) align 8 %4, i64 noundef %5) #28
  %6 = getelementptr inbounds nuw %struct.RString, ptr %4, i32 0, i32 2
  %7 = getelementptr inbounds nuw %struct.anon, ptr %6, i32 0, i32 0
  %8 = load ptr, ptr %7, align 8, !tbaa !68
  store ptr %8, ptr %3, align 8, !tbaa !19
  %9 = load ptr, ptr %3, align 8, !tbaa !19
  call void @llvm.lifetime.end.p0(i64 8, ptr %3) #23
  ret ptr %9
}

; Function Attrs: alwaysinline nounwind
define internal ptr @memmove.inline(ptr nonnull %0, ptr nonnull %1, i64 %2) #16 {
  %4 = alloca ptr, align 8
  %5 = alloca ptr, align 8
  %6 = alloca i64, align 8
  store ptr %0, ptr %4, align 8, !tbaa !77
  store ptr %1, ptr %5, align 8, !tbaa !77
  store i64 %2, ptr %6, align 8, !tbaa !6
  %7 = load ptr, ptr %4, align 8, !tbaa !77
  %8 = load ptr, ptr %5, align 8, !tbaa !77
  %9 = load i64, ptr %6, align 8, !tbaa !6
  %10 = load ptr, ptr %4, align 8, !tbaa !77
  %11 = call i64 @llvm.objectsize.i64.p0(ptr %10, i1 false, i1 true, i1 false)
  %12 = call ptr @__memmove_chk(ptr noundef %7, ptr noundef %8, i64 noundef %9, i64 noundef %11) #23
  ret ptr %12
}

; Function Attrs: inlinehint nounwind sspstrong willreturn memory(read, argmem: readwrite) uwtable
define internal void @rbimpl_rstring_getmem(ptr dead_on_unwind noalias writable sret(%struct.RString) align 8 %0, i64 noundef %1) #9 {
  %3 = alloca i64, align 8
  store i64 %1, ptr %3, align 8, !tbaa !6
  %4 = load i64, ptr %3, align 8, !tbaa !6
  %5 = call zeroext i1 @RB_FL_ANY_RAW(i64 noundef %4, i64 noundef 8192) #25
  br i1 %5, label %6, label %9

6:                                                ; preds = %2
  %7 = load i64, ptr %3, align 8, !tbaa !6
  %8 = inttoptr i64 %7 to ptr
  call void @llvm.memcpy.p0.p0.i64(ptr align 8 %0, ptr align 8 %8, i64 40, i1 false), !tbaa.struct !92
  br label %20

9:                                                ; preds = %2
  %10 = load i64, ptr %3, align 8, !tbaa !6
  %11 = call i64 @RSTRING_LEN(i64 noundef %10) #25
  %12 = getelementptr inbounds nuw %struct.RString, ptr %0, i32 0, i32 1
  store i64 %11, ptr %12, align 8, !tbaa !88
  %13 = load i64, ptr %3, align 8, !tbaa !6
  %14 = inttoptr i64 %13 to ptr
  %15 = getelementptr inbounds nuw %struct.RString, ptr %14, i32 0, i32 2
  %16 = getelementptr inbounds nuw %struct.anon.1, ptr %15, i32 0, i32 0
  %17 = getelementptr inbounds [1 x i8], ptr %16, i64 0, i64 0
  %18 = getelementptr inbounds nuw %struct.RString, ptr %0, i32 0, i32 2
  %19 = getelementptr inbounds nuw %struct.anon, ptr %18, i32 0, i32 0
  store ptr %17, ptr %19, align 8, !tbaa !68
  br label %20

20:                                               ; preds = %9, %6
  ret void
}

; Function Attrs: nounwind sspstrong uwtable
define internal void @zstream_expand_buffer_into(ptr noundef %0, i64 noundef %1) #0 {
  %3 = alloca ptr, align 8
  %4 = alloca i64, align 8
  store ptr %0, ptr %3, align 8, !tbaa !21
  store i64 %1, ptr %4, align 8, !tbaa !6
  %5 = load ptr, ptr %3, align 8, !tbaa !21
  %6 = getelementptr inbounds nuw %struct.zstream, ptr %5, i32 0, i32 1
  %7 = load i64, ptr %6, align 8, !tbaa !35
  %8 = call zeroext i1 @RB_NIL_P(i64 noundef %7) #24
  br i1 %8, label %9, label %30

9:                                                ; preds = %2
  %10 = load i64, ptr %4, align 8, !tbaa !6
  %11 = call i64 @rb_str_buf_new(i64 noundef %10)
  %12 = load ptr, ptr %3, align 8, !tbaa !21
  %13 = getelementptr inbounds nuw %struct.zstream, ptr %12, i32 0, i32 1
  store i64 %11, ptr %13, align 8, !tbaa !35
  %14 = load ptr, ptr %3, align 8, !tbaa !21
  %15 = getelementptr inbounds nuw %struct.zstream, ptr %14, i32 0, i32 1
  %16 = load i64, ptr %15, align 8, !tbaa !35
  %17 = call ptr @RSTRING_PTR(i64 noundef %16)
  %18 = load ptr, ptr %3, align 8, !tbaa !21
  %19 = getelementptr inbounds nuw %struct.zstream, ptr %18, i32 0, i32 4
  %20 = getelementptr inbounds nuw %struct.z_stream_s, ptr %19, i32 0, i32 3
  store ptr %17, ptr %20, align 8, !tbaa !96
  %21 = load i64, ptr %4, align 8, !tbaa !6
  %22 = call i32 @max_uint(i64 noundef %21)
  %23 = load ptr, ptr %3, align 8, !tbaa !21
  %24 = getelementptr inbounds nuw %struct.zstream, ptr %23, i32 0, i32 4
  %25 = getelementptr inbounds nuw %struct.z_stream_s, ptr %24, i32 0, i32 4
  store i32 %22, ptr %25, align 8, !tbaa !23
  %26 = load ptr, ptr %3, align 8, !tbaa !21
  %27 = getelementptr inbounds nuw %struct.zstream, ptr %26, i32 0, i32 1
  %28 = load i64, ptr %27, align 8, !tbaa !35
  %29 = call i64 @rb_obj_hide(i64 noundef %28)
  br label %56

30:                                               ; preds = %2
  %31 = load ptr, ptr %3, align 8, !tbaa !21
  %32 = getelementptr inbounds nuw %struct.zstream, ptr %31, i32 0, i32 4
  %33 = getelementptr inbounds nuw %struct.z_stream_s, ptr %32, i32 0, i32 4
  %34 = load i32, ptr %33, align 8, !tbaa !23
  %35 = zext i32 %34 to i64
  %36 = load i64, ptr %4, align 8, !tbaa !6
  %37 = icmp ne i64 %35, %36
  br i1 %37, label %38, label %55

38:                                               ; preds = %30
  %39 = load ptr, ptr %3, align 8, !tbaa !21
  %40 = getelementptr inbounds nuw %struct.zstream, ptr %39, i32 0, i32 1
  %41 = load i64, ptr %40, align 8, !tbaa !35
  %42 = load i64, ptr %4, align 8, !tbaa !6
  call void @rb_str_modify_expand(i64 noundef %41, i64 noundef %42)
  %43 = load ptr, ptr %3, align 8, !tbaa !21
  %44 = getelementptr inbounds nuw %struct.zstream, ptr %43, i32 0, i32 1
  %45 = load i64, ptr %44, align 8, !tbaa !35
  %46 = call ptr @RSTRING_END(i64 noundef %45)
  %47 = load ptr, ptr %3, align 8, !tbaa !21
  %48 = getelementptr inbounds nuw %struct.zstream, ptr %47, i32 0, i32 4
  %49 = getelementptr inbounds nuw %struct.z_stream_s, ptr %48, i32 0, i32 3
  store ptr %46, ptr %49, align 8, !tbaa !96
  %50 = load i64, ptr %4, align 8, !tbaa !6
  %51 = call i32 @max_uint(i64 noundef %50)
  %52 = load ptr, ptr %3, align 8, !tbaa !21
  %53 = getelementptr inbounds nuw %struct.zstream, ptr %52, i32 0, i32 4
  %54 = getelementptr inbounds nuw %struct.z_stream_s, ptr %53, i32 0, i32 4
  store i32 %51, ptr %54, align 8, !tbaa !23
  br label %55

55:                                               ; preds = %38, %30
  br label %56

56:                                               ; preds = %55, %9
  ret void
}

; Function Attrs: inlinehint nounwind sspstrong willreturn memory(read) uwtable
define internal i64 @RSTRING_LEN(i64 noundef %0) #6 {
  %2 = alloca i64, align 8
  store i64 %0, ptr %2, align 8, !tbaa !6
  %3 = load i64, ptr %2, align 8, !tbaa !6
  %4 = inttoptr i64 %3 to ptr
  %5 = getelementptr inbounds nuw %struct.RString, ptr %4, i32 0, i32 1
  %6 = load i64, ptr %5, align 8, !tbaa !88
  ret i64 %6
}

; Function Attrs: inlinehint nounwind sspstrong willreturn memory(none) uwtable
define internal zeroext i1 @RB_NIL_P(i64 noundef %0) #5 {
  %2 = alloca i64, align 8
  store i64 %0, ptr %2, align 8, !tbaa !6
  %3 = load i64, ptr %2, align 8, !tbaa !6
  %4 = icmp eq i64 %3, 4
  ret i1 %4
}

; Function Attrs: nounwind sspstrong uwtable
define internal void @zstream_buffer_ungets(ptr noundef %0, ptr noundef %1, i64 noundef %2) #0 {
  %4 = alloca ptr, align 8
  %5 = alloca ptr, align 8
  %6 = alloca i64, align 8
  %7 = alloca ptr, align 8
  %8 = alloca i64, align 8
  %9 = alloca %struct.RString, align 8
  %10 = alloca i64, align 8
  store ptr %0, ptr %4, align 8, !tbaa !21
  store ptr %1, ptr %5, align 8, !tbaa !19
  store i64 %2, ptr %6, align 8, !tbaa !6
  call void @llvm.lifetime.start.p0(i64 8, ptr %7) #23
  call void @llvm.lifetime.start.p0(i64 8, ptr %8) #23
  %11 = load ptr, ptr %4, align 8, !tbaa !21
  %12 = getelementptr inbounds nuw %struct.zstream, ptr %11, i32 0, i32 1
  %13 = load i64, ptr %12, align 8, !tbaa !35
  %14 = call zeroext i1 @RB_NIL_P(i64 noundef %13) #24
  br i1 %14, label %33, label %15

15:                                               ; preds = %3
  %16 = load ptr, ptr %4, align 8, !tbaa !21
  %17 = getelementptr inbounds nuw %struct.zstream, ptr %16, i32 0, i32 1
  %18 = load i64, ptr %17, align 8, !tbaa !35
  %19 = call i64 @rb_str_capacity(i64 noundef %18) #25
  %20 = load ptr, ptr %4, align 8, !tbaa !21
  %21 = getelementptr inbounds nuw %struct.zstream, ptr %20, i32 0, i32 1
  %22 = load i64, ptr %21, align 8, !tbaa !35
  %23 = call zeroext i1 @RB_NIL_P(i64 noundef %22) #24
  br i1 %23, label %24, label %25

24:                                               ; preds = %15
  br label %30

25:                                               ; preds = %15
  %26 = load ptr, ptr %4, align 8, !tbaa !21
  %27 = getelementptr inbounds nuw %struct.zstream, ptr %26, i32 0, i32 1
  %28 = load i64, ptr %27, align 8, !tbaa !35
  %29 = call i64 @RSTRING_LEN(i64 noundef %28) #25
  br label %30

30:                                               ; preds = %25, %24
  %31 = phi i64 [ 0, %24 ], [ %29, %25 ]
  %32 = icmp sle i64 %19, %31
  br i1 %32, label %33, label %36

33:                                               ; preds = %30, %3
  %34 = load ptr, ptr %4, align 8, !tbaa !21
  %35 = load i64, ptr %6, align 8, !tbaa !6
  call void @zstream_expand_buffer_into(ptr noundef %34, i64 noundef %35)
  br label %36

36:                                               ; preds = %33, %30
  call void @llvm.lifetime.start.p0(i64 40, ptr %9) #23
  %37 = load ptr, ptr %4, align 8, !tbaa !21
  %38 = getelementptr inbounds nuw %struct.zstream, ptr %37, i32 0, i32 1
  %39 = load i64, ptr %38, align 8, !tbaa !35
  call void @rbimpl_rstring_getmem(ptr dead_on_unwind writable sret(%struct.RString) align 8 %9, i64 noundef %39) #28
  %40 = getelementptr inbounds nuw %struct.RString, ptr %9, i32 0, i32 2
  %41 = getelementptr inbounds nuw %struct.anon, ptr %40, i32 0, i32 0
  %42 = load ptr, ptr %41, align 8, !tbaa !68
  store ptr %42, ptr %7, align 8, !tbaa !19
  %43 = getelementptr inbounds nuw %struct.RString, ptr %9, i32 0, i32 1
  %44 = load i64, ptr %43, align 8, !tbaa !88
  store i64 %44, ptr %8, align 8, !tbaa !6
  store i64 %44, ptr %10, align 8, !tbaa !6
  call void @llvm.lifetime.end.p0(i64 40, ptr %9) #23
  %45 = load ptr, ptr %7, align 8, !tbaa !19
  %46 = load i64, ptr %6, align 8, !tbaa !6
  %47 = getelementptr inbounds nuw i8, ptr %45, i64 %46
  %48 = load ptr, ptr %7, align 8, !tbaa !19
  %49 = load i64, ptr %8, align 8, !tbaa !6
  %50 = call ptr @memmove.inline(ptr noundef %47, ptr noundef %48, i64 noundef %49) #23
  %51 = load ptr, ptr %7, align 8, !tbaa !19
  %52 = load ptr, ptr %5, align 8, !tbaa !19
  %53 = load i64, ptr %6, align 8, !tbaa !6
  %54 = call ptr @memmove.inline(ptr noundef %51, ptr noundef %52, i64 noundef %53) #23
  %55 = load ptr, ptr %4, align 8, !tbaa !21
  %56 = getelementptr inbounds nuw %struct.zstream, ptr %55, i32 0, i32 1
  %57 = load i64, ptr %56, align 8, !tbaa !35
  %58 = load i64, ptr %8, align 8, !tbaa !6
  %59 = load i64, ptr %6, align 8, !tbaa !6
  %60 = add i64 %58, %59
  call void @rb_str_set_len(i64 noundef %57, i64 noundef %60)
  %61 = load ptr, ptr %4, align 8, !tbaa !21
  %62 = getelementptr inbounds nuw %struct.zstream, ptr %61, i32 0, i32 4
  %63 = getelementptr inbounds nuw %struct.z_stream_s, ptr %62, i32 0, i32 4
  %64 = load i32, ptr %63, align 8, !tbaa !23
  %65 = icmp ugt i32 %64, 0
  br i1 %65, label %66, label %94

66:                                               ; preds = %36
  %67 = load i64, ptr %6, align 8, !tbaa !6
  %68 = load ptr, ptr %4, align 8, !tbaa !21
  %69 = getelementptr inbounds nuw %struct.zstream, ptr %68, i32 0, i32 4
  %70 = getelementptr inbounds nuw %struct.z_stream_s, ptr %69, i32 0, i32 4
  %71 = load i32, ptr %70, align 8, !tbaa !23
  %72 = zext i32 %71 to i64
  %73 = icmp ugt i64 %67, %72
  br i1 %73, label %74, label %80

74:                                               ; preds = %66
  %75 = load ptr, ptr %4, align 8, !tbaa !21
  %76 = getelementptr inbounds nuw %struct.zstream, ptr %75, i32 0, i32 4
  %77 = getelementptr inbounds nuw %struct.z_stream_s, ptr %76, i32 0, i32 4
  %78 = load i32, ptr %77, align 8, !tbaa !23
  %79 = zext i32 %78 to i64
  store i64 %79, ptr %6, align 8, !tbaa !6
  br label %80

80:                                               ; preds = %74, %66
  %81 = load i64, ptr %6, align 8, !tbaa !6
  %82 = load ptr, ptr %4, align 8, !tbaa !21
  %83 = getelementptr inbounds nuw %struct.zstream, ptr %82, i32 0, i32 4
  %84 = getelementptr inbounds nuw %struct.z_stream_s, ptr %83, i32 0, i32 3
  %85 = load ptr, ptr %84, align 8, !tbaa !96
  %86 = getelementptr inbounds nuw i8, ptr %85, i64 %81
  store ptr %86, ptr %84, align 8, !tbaa !96
  %87 = load i64, ptr %6, align 8, !tbaa !6
  %88 = trunc i64 %87 to i32
  %89 = load ptr, ptr %4, align 8, !tbaa !21
  %90 = getelementptr inbounds nuw %struct.zstream, ptr %89, i32 0, i32 4
  %91 = getelementptr inbounds nuw %struct.z_stream_s, ptr %90, i32 0, i32 4
  %92 = load i32, ptr %91, align 8, !tbaa !23
  %93 = sub i32 %92, %88
  store i32 %93, ptr %91, align 8, !tbaa !23
  br label %94

94:                                               ; preds = %80, %36
  call void @llvm.lifetime.end.p0(i64 8, ptr %8) #23
  call void @llvm.lifetime.end.p0(i64 8, ptr %7) #23
  ret void
}