; Function Attrs: nounwind sspstrong uwtable
define internal fastcc void @zstream_buffer_ungets(ptr noundef captures(none) %0, ptr noundef %1, i64 noundef %2) unnamed_addr #0 {
  %4 = getelementptr inbounds nuw i8, ptr %0, i64 8
  %5 = load i64, ptr %4, align 8, !tbaa !43
  %6 = icmp eq i64 %5, 4
  br i1 %6, label %12, label %7

7:                                                ; preds = %3
  %8 = tail call i64 @rb_str_capacity(i64 noundef %5) #22
  %9 = inttoptr i64 %5 to ptr
  %10 = getelementptr inbounds nuw i8, ptr %9, i64 16
  %11 = load i64, ptr %10, align 8, !tbaa !21
  %.not = icmp sgt i64 %8, %11
  br i1 %.not, label %zstream_expand_buffer_into.exit, label %23

12:                                               ; preds = %3
  %13 = tail call i64 @rb_str_buf_new(i64 noundef %2) #18
  store i64 %13, ptr %4, align 8, !tbaa !43
  %14 = inttoptr i64 %13 to ptr
  %15 = load i64, ptr %14, align 8, !tbaa !16, !noalias !318
  %16 = and i64 %15, 8192
  %.not.i.i.i = icmp eq i64 %16, 0
  %17 = getelementptr inbounds nuw i8, ptr %14, i64 24
  br i1 %.not.i.i.i, label %RSTRING_PTR.exit.i, label %18

18:                                               ; preds = %12
  %.sroa.2.0.copyload.i.i = load ptr, ptr %17, align 8
  br label %RSTRING_PTR.exit.i

RSTRING_PTR.exit.i:                               ; preds = %18, %12
  %.sroa.2.0.i.i = phi ptr [ %.sroa.2.0.copyload.i.i, %18 ], [ %17, %12 ]
  %19 = getelementptr inbounds nuw i8, ptr %0, i64 56
  store ptr %.sroa.2.0.i.i, ptr %19, align 8, !tbaa !47
  %spec.store.select.i.i = tail call i64 @llvm.smin.i64(i64 %2, i64 4294967295)
  %20 = trunc i64 %spec.store.select.i.i to i32
  %21 = getelementptr inbounds nuw i8, ptr %0, i64 64
  store i32 %20, ptr %21, align 8, !tbaa !36
  %22 = tail call i64 @rb_obj_hide(i64 noundef %13) #18
  %.pre = load i64, ptr %4, align 8, !tbaa !43
  %.pre29 = inttoptr i64 %.pre to ptr
  br label %zstream_expand_buffer_into.exit

23:                                               ; preds = %7
  %24 = getelementptr inbounds nuw i8, ptr %0, i64 64
  %25 = load i32, ptr %24, align 8, !tbaa !36
  %26 = zext i32 %25 to i64
  %.not.i = icmp eq i64 %2, %26
  br i1 %.not.i, label %zstream_expand_buffer_into.exit, label %27

27:                                               ; preds = %23
  tail call void @rb_str_modify_expand(i64 noundef %5, i64 noundef %2) #18
  %28 = load i64, ptr %4, align 8, !tbaa !43
  %29 = inttoptr i64 %28 to ptr
  %30 = load i64, ptr %29, align 8, !tbaa !16, !noalias !321
  %31 = and i64 %30, 8192
  %.not.i.i15.i = icmp eq i64 %31, 0
  %32 = getelementptr inbounds nuw i8, ptr %29, i64 24
  br i1 %.not.i.i15.i, label %RSTRING_END.exit.i, label %33

33:                                               ; preds = %27
  %.sroa.5.0.copyload.i.i = load ptr, ptr %32, align 8
  br label %RSTRING_END.exit.i

RSTRING_END.exit.i:                               ; preds = %33, %27
  %.sroa.5.0.i.i = phi ptr [ %.sroa.5.0.copyload.i.i, %33 ], [ %32, %27 ]
  %.sroa.3.0.in.i.i = getelementptr inbounds nuw i8, ptr %29, i64 16
  %.sroa.3.0.i.i = load i64, ptr %.sroa.3.0.in.i.i, align 8, !tbaa !6
  %34 = getelementptr inbounds i8, ptr %.sroa.5.0.i.i, i64 %.sroa.3.0.i.i
  %35 = getelementptr inbounds nuw i8, ptr %0, i64 56
  store ptr %34, ptr %35, align 8, !tbaa !47
  %spec.store.select.i16.i = tail call i64 @llvm.smin.i64(i64 %2, i64 4294967295)
  %36 = trunc i64 %spec.store.select.i16.i to i32
  store i32 %36, ptr %24, align 8, !tbaa !36
  br label %zstream_expand_buffer_into.exit

zstream_expand_buffer_into.exit:                  ; preds = %RSTRING_END.exit.i, %23, %RSTRING_PTR.exit.i, %7
  %.pre-phi = phi ptr [ %29, %RSTRING_END.exit.i ], [ %9, %23 ], [ %.pre29, %RSTRING_PTR.exit.i ], [ %9, %7 ]
  %37 = load i64, ptr %.pre-phi, align 8, !tbaa !16, !noalias !324
  %38 = and i64 %37, 8192
  %.not.i28 = icmp eq i64 %38, 0
  %39 = getelementptr inbounds nuw i8, ptr %.pre-phi, i64 24
  br i1 %.not.i28, label %rbimpl_rstring_getmem.exit, label %40

40:                                               ; preds = %zstream_expand_buffer_into.exit
  %.sroa.5.0.copyload = load ptr, ptr %39, align 8
  br label %rbimpl_rstring_getmem.exit

rbimpl_rstring_getmem.exit:                       ; preds = %zstream_expand_buffer_into.exit, %40
  %.sroa.5.0 = phi ptr [ %.sroa.5.0.copyload, %40 ], [ %39, %zstream_expand_buffer_into.exit ]
  %.sroa.3.0.in = getelementptr inbounds nuw i8, ptr %.pre-phi, i64 16
  %.sroa.3.0 = load i64, ptr %.sroa.3.0.in, align 8, !tbaa !6
  %41 = getelementptr inbounds nuw i8, ptr %.sroa.5.0, i64 %2
  tail call void @llvm.memmove.p0.p0.i64(ptr noundef nonnull align 1 %41, ptr noundef nonnull align 1 %.sroa.5.0, i64 noundef %.sroa.3.0, i1 noundef false) #18
  tail call void @llvm.memmove.p0.p0.i64(ptr noundef nonnull align 1 %.sroa.5.0, ptr noundef nonnull align 1 %1, i64 noundef %2, i1 noundef false) #18
  %42 = load i64, ptr %4, align 8, !tbaa !43
  %43 = add i64 %.sroa.3.0, %2
  tail call void @rb_str_set_len(i64 noundef %42, i64 noundef %43) #18
  %44 = getelementptr inbounds nuw i8, ptr %0, i64 64
  %45 = load i32, ptr %44, align 8, !tbaa !36
  %.not27 = icmp eq i32 %45, 0
  br i1 %.not27, label %53, label %46

46:                                               ; preds = %rbimpl_rstring_getmem.exit
  %47 = zext i32 %45 to i64
  %spec.select = tail call i64 @llvm.umin.i64(i64 %2, i64 %47)
  %48 = getelementptr inbounds nuw i8, ptr %0, i64 56
  %49 = load ptr, ptr %48, align 8, !tbaa !47
  %50 = getelementptr inbounds nuw i8, ptr %49, i64 %spec.select
  store ptr %50, ptr %48, align 8, !tbaa !47
  %51 = trunc nuw i64 %spec.select to i32
  %52 = sub i32 %45, %51
  store i32 %52, ptr %44, align 8, !tbaa !36
  br label %53

53:                                               ; preds = %46, %rbimpl_rstring_getmem.exit
  ret void
}